; ModuleID = '23/1049.c'
source_filename = "23/1049.c"
target datalayout = "e-m:e-p270:32:32-p271:32:32-p272:64:64-i64:64-f80:128-n8:16:32:64-S128"
target triple = "x86_64-pc-linux-gnu"

@.str = private unnamed_addr constant [3 x i8] c"%c\00", align 1
@.str.1 = private unnamed_addr constant [2 x i8] c" \00", align 1

; Function Attrs: noinline nounwind uwtable
define dso_local i32 @sb(i8* %0) #0 {
  %2 = alloca i32, align 4
  %3 = alloca i8*, align 8
  %4 = alloca i8*, align 8
  %5 = alloca i8*, align 8
  %6 = alloca i32, align 4
  store i8* %0, i8** %3, align 8
  %7 = load i8*, i8** %3, align 8
  %8 = call i64 @strlen(i8* %7) #3
  %9 = trunc i64 %8 to i32
  store i32 %9, i32* %6, align 4
  %10 = load i8*, i8** %3, align 8
  %11 = load i32, i32* %6, align 4
  %12 = sext i32 %11 to i64
  %13 = getelementptr inbounds i8, i8* %10, i64 %12
  %14 = getelementptr inbounds i8, i8* %13, i64 -1
  store i8* %14, i8** %4, align 8
  br label %15

15:                                               ; preds = %27, %1
  %16 = load i8*, i8** %4, align 8
  %17 = load i8, i8* %16, align 1
  %18 = sext i8 %17 to i32
  %19 = icmp ne i32 %18, 32
  br i1 %19, label %20, label %25

20:                                               ; preds = %15
  %21 = load i8*, i8** %4, align 8
  %22 = load i8*, i8** %3, align 8
  %23 = getelementptr inbounds i8, i8* %22, i64 -1
  %24 = icmp ne i8* %21, %23
  br label %25

25:                                               ; preds = %20, %15
  %26 = phi i1 [ false, %15 ], [ %24, %20 ]
  br i1 %26, label %27, label %30

27:                                               ; preds = %25
  %28 = load i8*, i8** %4, align 8
  %29 = getelementptr inbounds i8, i8* %28, i32 -1
  store i8* %29, i8** %4, align 8
  br label %15

30:                                               ; preds = %25
  %31 = load i8*, i8** %4, align 8
  %32 = getelementptr inbounds i8, i8* %31, i64 1
  store i8* %32, i8** %5, align 8
  br label %33

33:                                               ; preds = %50, %30
  %34 = load i8*, i8** %5, align 8
  %35 = load i8, i8* %34, align 1
  %36 = sext i8 %35 to i32
  %37 = icmp ne i32 %36, 0
  br i1 %37, label %38, label %43

38:                                               ; preds = %33
  %39 = load i8*, i8** %5, align 8
  %40 = load i8, i8* %39, align 1
  %41 = sext i8 %40 to i32
  %42 = icmp ne i32 %41, 32
  br label %43

43:                                               ; preds = %38, %33
  %44 = phi i1 [ false, %33 ], [ %42, %38 ]
  br i1 %44, label %45, label %53

45:                                               ; preds = %43
  %46 = load i8*, i8** %5, align 8
  %47 = load i8, i8* %46, align 1
  %48 = sext i8 %47 to i32
  %49 = call i32 (i8*, ...) @printf(i8* getelementptr inbounds ([3 x i8], [3 x i8]* @.str, i64 0, i64 0), i32 %48)
  br label %50

50:                                               ; preds = %45
  %51 = load i8*, i8** %5, align 8
  %52 = getelementptr inbounds i8, i8* %51, i32 1
  store i8* %52, i8** %5, align 8
  br label %33

53:                                               ; preds = %43
  %54 = load i8*, i8** %4, align 8
  %55 = getelementptr inbounds i8, i8* %54, i32 -1
  store i8* %55, i8** %4, align 8
  br label %56

56:                                               ; preds = %101, %53
  %57 = load i8*, i8** %4, align 8
  %58 = load i8*, i8** %3, align 8
  %59 = icmp uge i8* %57, %58
  br i1 %59, label %60, label %104

60:                                               ; preds = %56
  %61 = call i32 (i8*, ...) @printf(i8* getelementptr inbounds ([2 x i8], [2 x i8]* @.str.1, i64 0, i64 0))
  br label %62

62:                                               ; preds = %74, %60
  %63 = load i8*, i8** %4, align 8
  %64 = load i8, i8* %63, align 1
  %65 = sext i8 %64 to i32
  %66 = icmp ne i32 %65, 32
  br i1 %66, label %67, label %72

67:                                               ; preds = %62
  %68 = load i8*, i8** %4, align 8
  %69 = load i8*, i8** %3, align 8
  %70 = getelementptr inbounds i8, i8* %69, i64 -1
  %71 = icmp ne i8* %68, %70
  br label %72

72:                                               ; preds = %67, %62
  %73 = phi i1 [ false, %62 ], [ %71, %67 ]
  br i1 %73, label %74, label %77

74:                                               ; preds = %72
  %75 = load i8*, i8** %4, align 8
  %76 = getelementptr inbounds i8, i8* %75, i32 -1
  store i8* %76, i8** %4, align 8
  br label %62

77:                                               ; preds = %72
  %78 = load i8*, i8** %4, align 8
  %79 = getelementptr inbounds i8, i8* %78, i64 1
  store i8* %79, i8** %5, align 8
  br label %80

80:                                               ; preds = %97, %77
  %81 = load i8*, i8** %5, align 8
  %82 = load i8, i8* %81, align 1
  %83 = sext i8 %82 to i32
  %84 = icmp ne i32 %83, 0
  br i1 %84, label %85, label %90

85:                                               ; preds = %80
  %86 = load i8*, i8** %5, align 8
  %87 = load i8, i8* %86, align 1
  %88 = sext i8 %87 to i32
  %89 = icmp ne i32 %88, 32
  br label %90

90:                                               ; preds = %85, %80
  %91 = phi i1 [ false, %80 ], [ %89, %85 ]
  br i1 %91, label %92, label %100

92:                                               ; preds = %90
  %93 = load i8*, i8** %5, align 8
  %94 = load i8, i8* %93, align 1
  %95 = sext i8 %94 to i32
  %96 = call i32 (i8*, ...) @printf(i8* getelementptr inbounds ([3 x i8], [3 x i8]* @.str, i64 0, i64 0), i32 %95)
  br label %97

97:                                               ; preds = %92
  %98 = load i8*, i8** %5, align 8
  %99 = getelementptr inbounds i8, i8* %98, i32 1
  store i8* %99, i8** %5, align 8
  br label %80

100:                                              ; preds = %90
  br label %101

101:                                              ; preds = %100
  %102 = load i8*, i8** %4, align 8
  %103 = getelementptr inbounds i8, i8* %102, i32 -1
  store i8* %103, i8** %4, align 8
  br label %56

104:                                              ; preds = %56
  %105 = load i32, i32* %2, align 4
  ret i32 %105
}

; Function Attrs: nounwind readonly
declare dso_local i64 @strlen(i8*) #1

declare dso_local i32 @printf(i8*, ...) #2

; Function Attrs: noinline nounwind uwtable
define dso_local i32 @main() #0 {
  %1 = alloca [1024 x i8], align 16
  %2 = getelementptr inbounds [1024 x i8], [1024 x i8]* %1, i64 0, i64 0
  %3 = call i32 (i8*, ...) bitcast (i32 (...)* @gets to i32 (i8*, ...)*)(i8* %2)
  %4 = getelementptr inbounds [1024 x i8], [1024 x i8]* %1, i64 0, i64 0
  %5 = call i32 @sb(i8* %4)
  ret i32 0
}

declare dso_local i32 @gets(...) #2


!llvm.module.flags = !{!0}
!llvm.ident = !{!1}

!0 = !{i32 1, !"wchar_size", i32 4}
!1 = !{!"clang version 10.0.0-4ubuntu1 "}
